; ModuleID = '17/86.c'
source_filename = "17/86.c"
target datalayout = "e-m:e-p270:32:32-p271:32:32-p272:64:64-i64:64-f80:128-n8:16:32:64-S128"
target triple = "x86_64-pc-linux-gnu"

@.str = private unnamed_addr constant [3 x i8] c"%s\00", align 1
@.str.1 = private unnamed_addr constant [4 x i8] c"%s\0A\00", align 1

; Function Attrs: noinline nounwind uwtable
define dso_local i32 @main() #0 {
  %1 = alloca i32, align 4
  %2 = alloca i32, align 4
  %3 = alloca i32, align 4
  %4 = alloca i32, align 4
  %5 = alloca i32, align 4
  %6 = alloca i32, align 4
  %7 = alloca i32, align 4
  %8 = alloca [100 x [1000 x i8]], align 16
  %9 = alloca [1000 x [1000 x i8]], align 16
  store i32 0, i32* %1, align 4
  store i32 0, i32* %3, align 4
  store i32 0, i32* %6, align 4
  store i32 0, i32* %7, align 4
  store i32 0, i32* %2, align 4
  br label %10

10:                                               ; preds = %28, %0
  %11 = load i32, i32* %2, align 4
  %12 = icmp slt i32 %11, 100
  br i1 %12, label %13, label %31

13:                                               ; preds = %10
  store i32 0, i32* %4, align 4
  br label %14

14:                                               ; preds = %24, %13
  %15 = load i32, i32* %4, align 4
  %16 = icmp slt i32 %15, 100
  br i1 %16, label %17, label %27

17:                                               ; preds = %14
  %18 = load i32, i32* %2, align 4
  %19 = sext i32 %18 to i64
  %20 = getelementptr inbounds [1000 x [1000 x i8]], [1000 x [1000 x i8]]* %9, i64 0, i64 %19
  %21 = load i32, i32* %4, align 4
  %22 = sext i32 %21 to i64
  %23 = getelementptr inbounds [1000 x i8], [1000 x i8]* %20, i64 0, i64 %22
  store i8 32, i8* %23, align 1
  br label %24

24:                                               ; preds = %17
  %25 = load i32, i32* %4, align 4
  %26 = add nsw i32 %25, 1
  store i32 %26, i32* %4, align 4
  br label %14

27:                                               ; preds = %14
  br label %28

28:                                               ; preds = %27
  %29 = load i32, i32* %2, align 4
  %30 = add nsw i32 %29, 1
  store i32 %30, i32* %2, align 4
  br label %10

31:                                               ; preds = %10
  store i32 0, i32* %2, align 4
  br label %32

32:                                               ; preds = %52, %31
  %33 = load i32, i32* %2, align 4
  %34 = icmp slt i32 %33, 100
  br i1 %34, label %35, label %55

35:                                               ; preds = %32
  %36 = load i32, i32* %2, align 4
  %37 = sext i32 %36 to i64
  %38 = getelementptr inbounds [100 x [1000 x i8]], [100 x [1000 x i8]]* %8, i64 0, i64 %37
  %39 = getelementptr inbounds [1000 x i8], [1000 x i8]* %38, i64 0, i64 0
  %40 = call i32 (i8*, ...) @__isoc99_scanf(i8* getelementptr inbounds ([3 x i8], [3 x i8]* @.str, i64 0, i64 0), i8* %39)
  %41 = load i32, i32* %3, align 4
  %42 = add nsw i32 %41, 1
  store i32 %42, i32* %3, align 4
  %43 = load i32, i32* %2, align 4
  %44 = sext i32 %43 to i64
  %45 = getelementptr inbounds [100 x [1000 x i8]], [100 x [1000 x i8]]* %8, i64 0, i64 %44
  %46 = getelementptr inbounds [1000 x i8], [1000 x i8]* %45, i64 0, i64 0
  %47 = load i8, i8* %46, align 8
  %48 = sext i8 %47 to i32
  %49 = icmp eq i32 %48, 0
  br i1 %49, label %50, label %51

50:                                               ; preds = %35
  br label %55

51:                                               ; preds = %35
  br label %52

52:                                               ; preds = %51
  %53 = load i32, i32* %2, align 4
  %54 = add nsw i32 %53, 1
  store i32 %54, i32* %2, align 4
  br label %32

55:                                               ; preds = %50, %32
  store i32 0, i32* %2, align 4
  br label %56

56:                                               ; preds = %199, %55
  %57 = load i32, i32* %2, align 4
  %58 = load i32, i32* %3, align 4
  %59 = icmp slt i32 %57, %58
  br i1 %59, label %60, label %202

60:                                               ; preds = %56
  %61 = load i32, i32* %2, align 4
  %62 = sext i32 %61 to i64
  %63 = getelementptr inbounds [100 x [1000 x i8]], [100 x [1000 x i8]]* %8, i64 0, i64 %62
  %64 = getelementptr inbounds [1000 x i8], [1000 x i8]* %63, i64 0, i64 0
  %65 = call i32 (i8*, ...) @printf(i8* getelementptr inbounds ([4 x i8], [4 x i8]* @.str.1, i64 0, i64 0), i8* %64)
  store i32 0, i32* %4, align 4
  br label %66

66:                                               ; preds = %132, %60
  %67 = load i32, i32* %4, align 4
  %68 = sext i32 %67 to i64
  %69 = load i32, i32* %2, align 4
  %70 = sext i32 %69 to i64
  %71 = getelementptr inbounds [100 x [1000 x i8]], [100 x [1000 x i8]]* %8, i64 0, i64 %70
  %72 = getelementptr inbounds [1000 x i8], [1000 x i8]* %71, i64 0, i64 0
  %73 = call i64 @strlen(i8* %72) #3
  %74 = icmp ult i64 %68, %73
  br i1 %74, label %75, label %135

75:                                               ; preds = %66
  %76 = load i32, i32* %2, align 4
  %77 = sext i32 %76 to i64
  %78 = getelementptr inbounds [100 x [1000 x i8]], [100 x [1000 x i8]]* %8, i64 0, i64 %77
  %79 = load i32, i32* %4, align 4
  %80 = sext i32 %79 to i64
  %81 = getelementptr inbounds [1000 x i8], [1000 x i8]* %78, i64 0, i64 %80
  %82 = load i8, i8* %81, align 1
  %83 = sext i8 %82 to i32
  %84 = icmp eq i32 %83, 41
  br i1 %84, label %85, label %131

85:                                               ; preds = %75
  %86 = load i32, i32* %4, align 4
  %87 = sub nsw i32 %86, 1
  store i32 %87, i32* %5, align 4
  br label %88

88:                                               ; preds = %127, %85
  %89 = load i32, i32* %5, align 4
  %90 = icmp sge i32 %89, 0
  br i1 %90, label %91, label %130

91:                                               ; preds = %88
  %92 = load i32, i32* %2, align 4
  %93 = sext i32 %92 to i64
  %94 = getelementptr inbounds [100 x [1000 x i8]], [100 x [1000 x i8]]* %8, i64 0, i64 %93
  %95 = load i32, i32* %5, align 4
  %96 = sext i32 %95 to i64
  %97 = getelementptr inbounds [1000 x i8], [1000 x i8]* %94, i64 0, i64 %96
  %98 = load i8, i8* %97, align 1
  %99 = sext i8 %98 to i32
  %100 = icmp eq i32 %99, 40
  br i1 %100, label %101, label %114

101:                                              ; preds = %91
  %102 = load i32, i32* %2, align 4
  %103 = sext i32 %102 to i64
  %104 = getelementptr inbounds [100 x [1000 x i8]], [100 x [1000 x i8]]* %8, i64 0, i64 %103
  %105 = load i32, i32* %5, align 4
  %106 = sext i32 %105 to i64
  %107 = getelementptr inbounds [1000 x i8], [1000 x i8]* %104, i64 0, i64 %106
  store i8 46, i8* %107, align 1
  %108 = load i32, i32* %2, align 4
  %109 = sext i32 %108 to i64
  %110 = getelementptr inbounds [100 x [1000 x i8]], [100 x [1000 x i8]]* %8, i64 0, i64 %109
  %111 = load i32, i32* %4, align 4
  %112 = sext i32 %111 to i64
  %113 = getelementptr inbounds [1000 x i8], [1000 x i8]* %110, i64 0, i64 %112
  store i8 46, i8* %113, align 1
  br label %130

114:                                              ; preds = %91
  %115 = load i32, i32* %2, align 4
  %116 = sext i32 %115 to i64
  %117 = getelementptr inbounds [100 x [1000 x i8]], [100 x [1000 x i8]]* %8, i64 0, i64 %116
  %118 = load i32, i32* %5, align 4
  %119 = sext i32 %118 to i64
  %120 = getelementptr inbounds [1000 x i8], [1000 x i8]* %117, i64 0, i64 %119
  %121 = load i8, i8* %120, align 1
  %122 = sext i8 %121 to i32
  %123 = icmp eq i32 %122, 41
  br i1 %123, label %124, label %125

124:                                              ; preds = %114
  br label %130

125:                                              ; preds = %114
  br label %126

126:                                              ; preds = %125
  br label %127

127:                                              ; preds = %126
  %128 = load i32, i32* %5, align 4
  %129 = add nsw i32 %128, -1
  store i32 %129, i32* %5, align 4
  br label %88

130:                                              ; preds = %124, %101, %88
  br label %131

131:                                              ; preds = %130, %75
  br label %132

132:                                              ; preds = %131
  %133 = load i32, i32* %4, align 4
  %134 = add nsw i32 %133, 1
  store i32 %134, i32* %4, align 4
  br label %66

135:                                              ; preds = %66
  store i32 0, i32* %4, align 4
  br label %136

136:                                              ; preds = %181, %135
  %137 = load i32, i32* %4, align 4
  %138 = sext i32 %137 to i64
  %139 = load i32, i32* %2, align 4
  %140 = sext i32 %139 to i64
  %141 = getelementptr inbounds [100 x [1000 x i8]], [100 x [1000 x i8]]* %8, i64 0, i64 %140
  %142 = getelementptr inbounds [1000 x i8], [1000 x i8]* %141, i64 0, i64 0
  %143 = call i64 @strlen(i8* %142) #3
  %144 = icmp ult i64 %138, %143
  br i1 %144, label %145, label %184

145:                                              ; preds = %136
  %146 = load i32, i32* %2, align 4
  %147 = sext i32 %146 to i64
  %148 = getelementptr inbounds [100 x [1000 x i8]], [100 x [1000 x i8]]* %8, i64 0, i64 %147
  %149 = load i32, i32* %4, align 4
  %150 = sext i32 %149 to i64
  %151 = getelementptr inbounds [1000 x i8], [1000 x i8]* %148, i64 0, i64 %150
  %152 = load i8, i8* %151, align 1
  %153 = sext i8 %152 to i32
  %154 = icmp eq i32 %153, 40
  br i1 %154, label %155, label %162

155:                                              ; preds = %145
  %156 = load i32, i32* %2, align 4
  %157 = sext i32 %156 to i64
  %158 = getelementptr inbounds [1000 x [1000 x i8]], [1000 x [1000 x i8]]* %9, i64 0, i64 %157
  %159 = load i32, i32* %4, align 4
  %160 = sext i32 %159 to i64
  %161 = getelementptr inbounds [1000 x i8], [1000 x i8]* %158, i64 0, i64 %160
  store i8 36, i8* %161, align 1
  br label %180

162:                                              ; preds = %145
  %163 = load i32, i32* %2, align 4
  %164 = sext i32 %163 to i64
  %165 = getelementptr inbounds [100 x [1000 x i8]], [100 x [1000 x i8]]* %8, i64 0, i64 %164
  %166 = load i32, i32* %4, align 4
  %167 = sext i32 %166 to i64
  %168 = getelementptr inbounds [1000 x i8], [1000 x i8]* %165, i64 0, i64 %167
  %169 = load i8, i8* %168, align 1
  %170 = sext i8 %169 to i32
  %171 = icmp eq i32 %170, 41
  br i1 %171, label %172, label %179

172:                                              ; preds = %162
  %173 = load i32, i32* %2, align 4
  %174 = sext i32 %173 to i64
  %175 = getelementptr inbounds [1000 x [1000 x i8]], [1000 x [1000 x i8]]* %9, i64 0, i64 %174
  %176 = load i32, i32* %4, align 4
  %177 = sext i32 %176 to i64
  %178 = getelementptr inbounds [1000 x i8], [1000 x i8]* %175, i64 0, i64 %177
  store i8 63, i8* %178, align 1
  br label %179

179:                                              ; preds = %172, %162
  br label %180

180:                                              ; preds = %179, %155
  br label %181

181:                                              ; preds = %180
  %182 = load i32, i32* %4, align 4
  %183 = add nsw i32 %182, 1
  store i32 %183, i32* %4, align 4
  br label %136

184:                                              ; preds = %136
  %185 = load i32, i32* %2, align 4
  %186 = sext i32 %185 to i64
  %187 = getelementptr inbounds [1000 x [1000 x i8]], [1000 x [1000 x i8]]* %9, i64 0, i64 %186
  %188 = load i32, i32* %2, align 4
  %189 = sext i32 %188 to i64
  %190 = getelementptr inbounds [100 x [1000 x i8]], [100 x [1000 x i8]]* %8, i64 0, i64 %189
  %191 = getelementptr inbounds [1000 x i8], [1000 x i8]* %190, i64 0, i64 0
  %192 = call i64 @strlen(i8* %191) #3
  %193 = getelementptr inbounds [1000 x i8], [1000 x i8]* %187, i64 0, i64 %192
  store i8 0, i8* %193, align 1
  %194 = load i32, i32* %2, align 4
  %195 = sext i32 %194 to i64
  %196 = getelementptr inbounds [1000 x [1000 x i8]], [1000 x [1000 x i8]]* %9, i64 0, i64 %195
  %197 = getelementptr inbounds [1000 x i8], [1000 x i8]* %196, i64 0, i64 0
  %198 = call i32 (i8*, ...) @printf(i8* getelementptr inbounds ([4 x i8], [4 x i8]* @.str.1, i64 0, i64 0), i8* %197)
  br label %199

199:                                              ; preds = %184
  %200 = load i32, i32* %2, align 4
  %201 = add nsw i32 %200, 1
  store i32 %201, i32* %2, align 4
  br label %56

202:                                              ; preds = %56
  ret i32 0
}

declare dso_local i32 @__isoc99_scanf(i8*, ...) #1

declare dso_local i32 @printf(i8*, ...) #1

; Function Attrs: nounwind readonly
declare dso_local i64 @strlen(i8*) #2


!llvm.module.flags = !{!0}
!llvm.ident = !{!1}

!0 = !{i32 1, !"wchar_size", i32 4}
!1 = !{!"clang version 10.0.0-4ubuntu1 "}
